target datalayout = "e-m:e-p270:32:32-p271:32:32-p272:64:64-i64:64-i128:128-f80:128-n8:16:32:64-S128"
target triple = "x86_64-pc-linux-gnu"

%struct.FormData_pg_amop = type { i32, i32, i32, i32, i16, i8, i32, i32, i32 }
%struct.HeapTupleData = type { i32, %struct.ItemPointerData, i32, ptr }
%struct.ItemPointerData = type { %struct.BlockIdData, i16 }
%struct.BlockIdData = type { i16, i16 }
%struct.HeapTupleHeaderData = type { %union.anon, %struct.ItemPointerData, i16, i16, i8, [0 x i8] }
%union.anon = type { %struct.HeapTupleFields }
%struct.HeapTupleFields = type { i32, i32, %union.anon.0 }
%union.anon.0 = type { i32 }

; Function Attrs: inlinehint nounwind uwtable
define internal ptr @GETSTRUCT(ptr noundef %0) #2 {
  %2 = alloca ptr, align 8
  store ptr %0, ptr %2, align 8
  %3 = load ptr, ptr %2, align 8
  %4 = getelementptr inbounds nuw %struct.HeapTupleData, ptr %3, i32 0, i32 3
  %5 = load ptr, ptr %4, align 8
  %6 = load ptr, ptr %2, align 8
  %7 = getelementptr inbounds nuw %struct.HeapTupleData, ptr %6, i32 0, i32 3
  %8 = load ptr, ptr %7, align 8
  %9 = getelementptr inbounds nuw %struct.HeapTupleHeaderData, ptr %8, i32 0, i32 4
  %10 = load i8, ptr %9, align 2
  %11 = zext i8 %10 to i32
  %12 = sext i32 %11 to i64
  %13 = getelementptr inbounds i8, ptr %5, i64 %12
  ret ptr %13
}

; Function Attrs: inlinehint nounwind uwtable
define internal i64 @Int16GetDatum(i16 noundef signext %0) #2 {
  %2 = alloca i16, align 2
  store i16 %0, ptr %2, align 2
  %3 = load i16, ptr %2, align 2
  %4 = sext i16 %3 to i64
  ret i64 %4
}

; Function Attrs: inlinehint nounwind uwtable
define internal i64 @ObjectIdGetDatum(i32 noundef %0) #2 {
  %2 = alloca i32, align 4
  store i32 %0, ptr %2, align 4
  %3 = load i32, ptr %2, align 4
  %4 = zext i32 %3 to i64
  ret i64 %4
}

; Function Attrs: nounwind uwtable
define dso_local i32 @get_opfamily_member(i32 noundef %0, i32 noundef %1, i32 noundef %2, i16 noundef signext %3) #0 {
  %5 = alloca i32, align 4
  %6 = alloca i32, align 4
  %7 = alloca i32, align 4
  %8 = alloca i32, align 4
  %9 = alloca i16, align 2
  %10 = alloca ptr, align 8
  %11 = alloca ptr, align 8
  %12 = alloca i32, align 4
  %13 = alloca i32, align 4
  store i32 %0, ptr %6, align 4
  store i32 %1, ptr %7, align 4
  store i32 %2, ptr %8, align 4
  store i16 %3, ptr %9, align 2
  call void @llvm.lifetime.start.p0(i64 8, ptr %10) #7
  call void @llvm.lifetime.start.p0(i64 8, ptr %11) #7
  call void @llvm.lifetime.start.p0(i64 4, ptr %12) #7
  %14 = load i32, ptr %6, align 4
  %15 = call i64 @ObjectIdGetDatum(i32 noundef %14)
  %16 = load i32, ptr %7, align 4
  %17 = call i64 @ObjectIdGetDatum(i32 noundef %16)
  %18 = load i32, ptr %8, align 4
  %19 = call i64 @ObjectIdGetDatum(i32 noundef %18)
  %20 = load i16, ptr %9, align 2
  %21 = call i64 @Int16GetDatum(i16 noundef signext %20)
  %22 = call ptr @SearchSysCache4(i32 noundef 4, i64 noundef %15, i64 noundef %17, i64 noundef %19, i64 noundef %21)
  store ptr %22, ptr %10, align 8
  %23 = load ptr, ptr %10, align 8
  %24 = icmp ne ptr %23, null
  br i1 %24, label %26, label %25

25:                                               ; preds = %4
  store i32 0, ptr %5, align 4
  store i32 1, ptr %13, align 4
  br label %34

26:                                               ; preds = %4
  %27 = load ptr, ptr %10, align 8
  %28 = call ptr @GETSTRUCT(ptr noundef %27)
  store ptr %28, ptr %11, align 8
  %29 = load ptr, ptr %11, align 8
  %30 = getelementptr inbounds nuw %struct.FormData_pg_amop, ptr %29, i32 0, i32 6
  %31 = load i32, ptr %30, align 4
  store i32 %31, ptr %12, align 4
  %32 = load ptr, ptr %10, align 8
  call void @ReleaseSysCache(ptr noundef %32)
  %33 = load i32, ptr %12, align 4
  store i32 %33, ptr %5, align 4
  store i32 1, ptr %13, align 4
  br label %34

34:                                               ; preds = %26, %25
  call void @llvm.lifetime.end.p0(i64 4, ptr %12) #7
  call void @llvm.lifetime.end.p0(i64 8, ptr %11) #7
  call void @llvm.lifetime.end.p0(i64 8, ptr %10) #7
  %35 = load i32, ptr %5, align 4
  ret i32 %35
}